target datalayout = "e-m:e-p270:32:32-p271:32:32-p272:64:64-i64:64-i128:128-f80:128-n8:16:32:64-S128"
target triple = "x86_64-unknown-linux-gnu"

; Function Attrs: mustprogress uwtable
define void @_ZN6icu_7510DateFormat15setNumberFormatERKNS_12NumberFormatE(ptr noundef nonnull align 8 dereferenceable(352) %this, ptr noundef nonnull align 8 dereferenceable(356) %newNumberFormat) unnamed_addr #2 align 2 {
entry:
  %this.addr = alloca ptr, align 8
  %newNumberFormat.addr = alloca ptr, align 8
  %newNumFmtClone = alloca ptr, align 8
  store ptr %this, ptr %this.addr, align 8
  store ptr %newNumberFormat, ptr %newNumberFormat.addr, align 8
  %this1 = load ptr, ptr %this.addr, align 8
  %0 = load ptr, ptr %newNumberFormat.addr, align 8
  %vtable = load ptr, ptr %0, align 8
  %vfn = getelementptr inbounds ptr, ptr %vtable, i64 4
  %1 = load ptr, ptr %vfn, align 8
  %call = call noundef ptr %1(ptr noundef nonnull align 8 dereferenceable(356) %0)
  store ptr %call, ptr %newNumFmtClone, align 8
  %2 = load ptr, ptr %newNumFmtClone, align 8
  %cmp = icmp ne ptr %2, null
  br i1 %cmp, label %if.then, label %if.end

if.then:                                          ; preds = %entry
  %3 = load ptr, ptr %newNumFmtClone, align 8
  %vtable2 = load ptr, ptr %this1, align 8
  %vfn3 = getelementptr inbounds ptr, ptr %vtable2, i64 20
  %4 = load ptr, ptr %vfn3, align 8
  call void %4(ptr noundef nonnull align 8 dereferenceable(352) %this1, ptr noundef %3)
  br label %if.end

if.end:                                           ; preds = %if.then, %entry
  ret void
}