; Function Attrs: mustprogress uwtable
define void @_ZN6icu_7510DateFormat15setNumberFormatERKNS_12NumberFormatE(ptr noundef nonnull align 8 dereferenceable(352) %this, ptr noundef nonnull align 8 dereferenceable(356) %newNumberFormat) unnamed_addr #3 align 2 {
entry:
  %vtable = load ptr, ptr %newNumberFormat, align 8
  %vfn = getelementptr inbounds i8, ptr %vtable, i64 32
  %0 = load ptr, ptr %vfn, align 8
  %call = tail call noundef ptr %0(ptr noundef nonnull align 8 dereferenceable(356) %newNumberFormat)
  %cmp.not = icmp eq ptr %call, null
  br i1 %cmp.not, label %if.end, label %if.then

if.then:                                          ; preds = %entry
  %vtable2 = load ptr, ptr %this, align 8
  %vfn3 = getelementptr inbounds i8, ptr %vtable2, i64 160
  %1 = load ptr, ptr %vfn3, align 8
  tail call void %1(ptr noundef nonnull align 8 dereferenceable(352) %this, ptr noundef nonnull %call)
  br label %if.end

if.end:                                           ; preds = %if.then, %entry
  ret void
}